; Function Attrs: mustprogress uwtable
define internal noundef ptr @_ZN7rocksdb12_GLOBAL__N_112SimCacheImpl5ValueEPNS_5Cache6HandleE(ptr noundef nonnull readonly align 8 captures(none) dereferenceable(216) %0, ptr noundef %1) unnamed_addr #4 align 2 {
  %3 = getelementptr inbounds nuw i8, ptr %0, i64 80
  %4 = load ptr, ptr %3, align 8, !tbaa !45
  %5 = load ptr, ptr %4, align 8, !tbaa !32
  %6 = getelementptr inbounds nuw i8, ptr %5, i64 192
  %7 = load ptr, ptr %6, align 8
  %8 = tail call noundef ptr %7(ptr noundef nonnull align 8 dereferenceable(80) %4, ptr noundef %1)
  ret ptr %8
}